 LoadOption

 Timestamp is 5fc14dc2 (Fri Nov 27 20:04:34 2020)

 Preferred load address is 0000000180000000

 Start         Length     Name                   Class
 0001:00000000 00007764H .text$mn                CODE
 0002:00000000 00000008H .CRT$XCA                DATA
 0002:00000008 00000008H .CRT$XCZ                DATA
 0002:00000010 00000008H .CRT$XIA                DATA
 0002:00000018 00000008H .CRT$XIZ                DATA
 0002:00000020 00000008H .CRT$XPA                DATA
 0002:00000028 00000008H .CRT$XPZ                DATA
 0002:00000030 00000008H .CRT$XTA                DATA
 0002:00000038 00000008H .CRT$XTZ                DATA
 0002:00000040 00001174H .rdata                  DATA
 0002:000011b4 00000120H .rdata$zzzdbg           DATA
 0002:000012d4 00000580H .xdata                  DATA
 0003:00000000 000027a0H .data                   DATA
 0003:000027a0 00002910H .bss                    DATA
 0004:00000000 0000042cH .pdata                  DATA

  Address         Publics by Value              Rva+Base               Lib:Object

 0000:00000000       __AbsoluteZero             0000000000000000     <absolute>
 0000:00000000       __hybrid_auxiliary_iat     0000000000000000     <absolute>
 0000:00000000       __guard_eh_cont_count      0000000000000000     <absolute>
 0000:00000000       __guard_flags              0000000000000000     <absolute>
 0000:00000000       __dynamic_value_reloc_table 0000000000000000     <absolute>
 0000:00000000       __hybrid_code_map_count    0000000000000000     <absolute>
 0000:00000000       __guard_longjmp_count      0000000000000000     <absolute>
 0000:00000000       __arm64x_native_entrypoint 0000000000000000     <absolute>
 0000:00000000       ___safe_se_handler_count   0000000000000000     <absolute>
 0000:00000000       __guard_iat_count          0000000000000000     <absolute>
 0000:00000000       __guard_eh_cont_table      0000000000000000     <absolute>
 0000:00000000       __arm64x_extra_rfe_table_size 0000000000000000     <absolute>
 0000:00000000       __volatile_metadata        0000000000000000     <absolute>
 0000:00000000       __x64_code_ranges_to_entry_points_count 0000000000000000     <absolute>
 0000:00000000       __hybrid_code_map          0000000000000000     <absolute>
 0000:00000000       __arm64x_extra_rfe_table   0000000000000000     <absolute>
 0000:00000000       __enclave_config           0000000000000000     <absolute>
 0000:00000000       __arm64x_redirection_metadata_count 0000000000000000     <absolute>
 0000:00000000       __guard_iat_table          0000000000000000     <absolute>
 0000:00000000       __guard_fids_table         0000000000000000     <absolute>
 0000:00000000       __guard_fids_count         0000000000000000     <absolute>
 0000:00000000       __arm64x_redirection_metadata 0000000000000000     <absolute>
 0000:00000000       __x64_code_ranges_to_entry_points 0000000000000000     <absolute>
 0000:00000000       __guard_longjmp_table      0000000000000000     <absolute>
 0000:00000000       ___safe_se_handler_table   0000000000000000     <absolute>
 0001:00000000       main                       00000001800002a0 f   main.obj
 0001:00000908       _GetCdeAppIf               0000000180000ba8 f   CdeLib:osifUefiShellEntryPoint.obj
 0001:00000974       __CdeChkCtrlC              0000000180000c14 f   CdeLib:osifUefiShellEntryPoint.obj
 0001:000009a8       _MainEntryPointShell       0000000180000c48 f   CdeLib:osifUefiShellEntryPoint.obj
 0001:00001000       __acrt_iob_func            00000001800012a0 f   CdeLib:__acrt_iob_func.obj
 0001:00001014       fprintf                    00000001800012b4 f   CdeLib:Fprintf.obj
 0001:000010a0       printf                     0000000180001340 f   CdeLib:Printf.obj
 0001:00001118       sscanf                     00000001800013b8 f   CdeLib:Sscanf.obj
 0001:00001180       malloc                     0000000180001420 f   CdeLib:Malloc.obj
 0001:0000118c       realloc                    000000018000142c f   CdeLib:Realloc.obj
 0001:000011c4       strcpy                     0000000180001464 f   CdeLib:StrCpy.obj
 0001:000011fc       strcmp                     000000018000149c f   CdeLib:StrCmp.obj
 0001:00001238       memset                     00000001800014d8 f   CdeLib:MemSet.obj
 0001:0000125c       strlen                     00000001800014fc f   CdeLib:StrLen.obj
 0001:00001270       wcscpy                     0000000180001510 f   CdeLib:WcsCpy.obj
 0001:000012a8       wcscmp                     0000000180001548 f   CdeLib:WcsCmp.obj
 0001:000012e4       strerror                   0000000180001584 f   CdeLib:StrError.obj
 0001:00001308       strefierror                00000001800015a8 f   CdeLib:StrError.obj
 0001:00001330       _sigdfl                    00000001800015d0 f   CdeLib:_sigdfl.obj
 0001:00001338       _CdeDbgPutChar             00000001800015d8 f   CdeLib:_CdeDbgPutChar.obj
 0001:000014c0       VwxPrintf                  0000000180001760 f   CdeLib:VwxPrintf.obj
 0001:00001ed8       _strlen                    0000000180002178 f   CdeLib:VwxPrintf.obj
 0001:00001ef0       _wcslen                    0000000180002190 f   CdeLib:VwxPrintf.obj
 0001:00001f0c       ComputeFieldSize           00000001800021ac f   CdeLib:VwxPrintf.obj
 0001:00001f48       ydes                       00000001800021e8 f   CdeLib:VwxPrintf.obj
 0001:0000254c       VwxScanf                   00000001800027ec f   CdeLib:VwxScanf.obj
 0001:000037bc       WcsStrTok                  0000000180003a5c f   CdeLib:WcsStrTok.obj
 0001:000038bc       WcsStrPbrkSpn              0000000180003b5c f   CdeLib:WcsStrPbrkSpn.obj
 0001:00003a04       MemRealloc                 0000000180003ca4 f   CdeLib:MemRealloc.obj
 0001:00003e18       MemStrxCpy                 00000001800040b8 f   CdeLib:MemStrxCpy.obj
 0001:00003f0c       MemStrxCmp                 00000001800041ac f   CdeLib:MemStrxCmp.obj
 0001:0000404c       osifIbmAtGetTime           00000001800042ec f   CdeLib:osifIbmAtGetTime.obj
 0001:000041e8       osifIbmAtGetTscPerSec      0000000180004488 f   CdeLib:osifIbmAtGetTscPerSec.obj
 0001:00004234       osifIbmAtGetTsc            00000001800044d4 f   CdeLib:osifIbmAtGetTsc.obj
 0001:00004240       osifUefiShellMemAlloc      00000001800044e0 f   CdeLib:osifUefiShellMemAlloc.obj
 0001:00004284       osifUefiShellMemFree       0000000180004524 f   CdeLib:osifUefiShellMemFree.obj
 0001:0000429c       osifUefiShellFileWrite     000000018000453c f   CdeLib:osifUefiShellFileWrite.obj
 0001:000043cc       osifUefiShellFileRead      000000018000466c f   CdeLib:osifUefiShellFileRead.obj
 0001:000045f8       osifUefiShellFileSetPos    0000000180004898 f   CdeLib:osifUefiShellFileSetPos.obj
 0001:000046b0       osifUefiShellFileOpen      0000000180004950 f   CdeLib:osifUefiShellFileOpen.obj
 0001:00004b3c       osifUefiShellFileClose     0000000180004ddc f   CdeLib:osifUefiShellFileClose.obj
 0001:00004b8c       osifUefiShellFileDelete    0000000180004e2c f   CdeLib:osifUefiShellFileDelete.obj
 0001:00004bb4       osifUefiShellFileRename    0000000180004e54 f   CdeLib:osifUefiShellFileRename.obj
 0001:00004ebc       osifUefiShellCmdExec       000000018000515c f   CdeLib:osifUefiShellCmdExec.obj
 0001:00004fb8       osifUefiShellGetEnv        0000000180005258 f   CdeLib:osifUefiShellGetEnv.obj
 0001:00005060       VMofine                    0000000180005300 f   CdeLib:VMofine.obj
 0001:00005440       XDump                      00000001800056e0 f   CdeLib:XDump.obj
 0001:00005b68       fclose                     0000000180005e08 f   CdeLib:Fclose.obj
 0001:00005c14       fgetc                      0000000180005eb4 f   CdeLib:Fgetc.obj
 0001:00005c48       fwrite                     0000000180005ee8 f   CdeLib:Fwrite.obj
 0001:00005e74       FilePointerValid           0000000180006114 f   CdeLib:Fwrite.obj
 0001:00005ebc       sprintf                    000000018000615c f   CdeLib:Sprintf.obj
 0001:00005ee8       raise                      0000000180006188 f   CdeLib:raise.obj
 0001:00005f7c       free                       000000018000621c f   CdeLib:Free.obj
 0001:00005f84       _CdeStr2Argv               0000000180006224 f   CdeLib:_CdeStr2Argv.obj
 0001:000061b8       _CdeLocateProtocol         0000000180006458 f   CdeLib:_CdeLocateProtocol.obj
 0001:000061f0       _setjmp                    0000000180006490 f   CdeLib:setjmp64.obj
 0001:00006298       UefiBootServicesTableLibConstructor 0000000180006538 f   CdeLib:UefiBootServicesTableLib.obj
 0001:000062b4       XISCLIBNOT                 0000000180006554 f   CdeLib:_initterm.obj
 0001:000062c0       XCSCLIBNOT                 0000000180006560 f   CdeLib:_initterm.obj
 0001:000062cc       XPSCLIBNOT                 000000018000656c f   CdeLib:_initterm.obj
 0001:000062d8       XTSCLIBNOT                 0000000180006578 f   CdeLib:_initterm.obj
 0001:000062e4       _initterm_e                0000000180006584 f   CdeLib:_initterm.obj
 0001:00006324       _initterm                  00000001800065c4 f   CdeLib:_initterm.obj
 0001:00006358       fflush                     00000001800065f8 f   CdeLib:Fflush.obj
 0001:000063f0       fputc                      0000000180006690 f   CdeLib:Fputc.obj
 0001:00006454       _CdeMemGetChar             00000001800066f4 f   CdeLib:_CdeMemGetChar.obj
 0001:00006464       _CdeMemUngetChar           0000000180006704 f   CdeLib:_CdeMemUngetChar.obj
 0001:0000646c       _abort                     000000018000670c f   CdeLib:_abort.obj
 0001:000064c0       _CdeGetCurrentPrivilegeLevel 0000000180006760 f   CdeLib:CdeGetCurrentPrivilegeLevel64.obj
 0001:000064c8       _CdeDbgCOMInit             0000000180006768 f   CdeLib:_CdeDbgCOMInit.obj
 0001:000065e4       _CdeDbgCOMReady2Send       0000000180006884 f   CdeLib:_CdeDbgCOMReady2Send.obj
 0001:00006614       _CdeDbgCOMSend             00000001800068b4 f   CdeLib:_CdeDbgCOMSend.obj
 0001:0000663c       isdigit                    00000001800068dc f   CdeLib:isdigit.obj
 0001:00006650       isxdigit                   00000001800068f0 f   CdeLib:isxdigit.obj
 0001:0000667c       isspace                    000000018000691c f   CdeLib:isspace.obj
 0001:00006694       _mktime64                  0000000180006934 f   CdeLib:mktime.obj
 0001:00006724       mktime                     00000001800069c4 f   CdeLib:mktime.obj
 0001:0000672c       _gmltime                   00000001800069cc f   CdeLib:_gmltime.obj
 0001:00006848       _errno                     0000000180006ae8 f   CdeLib:errno.obj
 0001:00006858       _onerrset_status           0000000180006af8 f   CdeLib:errno.obj
 0001:00006878       _onerrset_errno            0000000180006b18 f   CdeLib:errno.obj
 0001:00006890       wcschr                     0000000180006b30 f   CdeLib:WcsChr.obj
 0001:000068c8       wcscat                     0000000180006b68 f   CdeLib:WcsCat.obj
 0001:000068f8       wcsncmp                    0000000180006b98 f   CdeLib:WcsNCmp.obj
 0001:00006940       wcsncpy                    0000000180006be0 f   CdeLib:WcsNCpy.obj
 0001:00006984       wcstok                     0000000180006c24 f   CdeLib:WcsTok.obj
 0001:000069d4       _wcsicmp                   0000000180006c74 f   CdeLib:_WcsICmp.obj
 0001:00006a10       _CdeLocateHandleBuffer     0000000180006cb0 f   CdeLib:_CdeLocateHandleBuffer.obj
 0001:00006a98       _CdeConvertDevicePathToText 0000000180006d38 f   CdeLib:_CdeConvertDevicePathToText.obj
 0001:00006ab4       _CdeGetMapFromDevicePath   0000000180006d54 f   CdeLib:_CdeGetMapFromDevicePath.obj
 0001:00006ad0       _CdeGetCurDir              0000000180006d70 f   CdeLib:_CdeGetCurDir.obj
 0001:00006aec       wcsrchr                    0000000180006d8c f   CdeLib:WcsRChr.obj
 0001:00006b44       wcslen                     0000000180006de4 f   CdeLib:WcsLen.obj
 0001:00006b58       __CoreSprintf              0000000180006df8 f   CdeLib:__CoreSprintf.obj
 0001:00006ba8       __CoreClock                0000000180006e48 f   CdeLib:__CoreClock.obj
 0001:00006bf4       __CoreExit                 0000000180006e94 f   CdeLib:__CoreExit.obj
 0001:00006c08       __CoreMofine               0000000180006ea8 f   CdeLib:__CoreMofine.obj
 0001:00006c54       isalnum                    0000000180006ef4 f   CdeLib:isalnum.obj
 0001:00006c7c       remove                     0000000180006f1c f   CdeLib:Remove.obj
 0001:00006cf4       fread                      0000000180006f94 f   CdeLib:Fread.obj
 0001:00006f84       vsnprintf                  0000000180007224 f   CdeLib:Vsnprintf.obj
 0001:00007050       _sig2idx                   00000001800072f0 f   CdeLib:_sig2idx.obj
 0001:00007078       _sigign                    0000000180007318 f   CdeLib:_sigign.obj
 0001:000070fc       exit                       000000018000739c f   CdeLib:exit.obj
 0001:0000711c       gregorian2day              00000001800073bc f   CdeLib:_greg2day.obj
 0001:00007198       day2gregorian              0000000180007438 f   CdeLib:_day2greg.obj
 0001:0000729c       wcspbrk                    000000018000753c f   CdeLib:WcsPbrk.obj
 0001:000072e0       memcpy                     0000000180007580 f   CdeLib:MemCpy.obj
 0001:00007300       _CdePoolWcs2AppWcs         00000001800075a0 f   CdeLib:_CdePoolWcs2AppWcs.obj
 0001:00007370       _CdeMemPutChar             0000000180007610 f   CdeLib:_CdeMemPutChar.obj
 0001:00007380       longjmp                    0000000180007620 f   CdeLib:longjmp64.obj
 0001:0000742c       isalpha                    00000001800076cc f   CdeLib:isalpha.obj
 0001:00007454       fopen                      00000001800076f4 f   CdeLib:Fopen.obj
 0001:0000759c       rewind                     000000018000783c f   CdeLib:Rewind.obj
 0001:000075b8       _CdeMemPutNada             0000000180007858 f   CdeLib:_CdeMemPutNada.obj
 0001:000075bc       abort                      000000018000785c f   CdeLib:abort.obj
 0001:00007620       isupper                    00000001800078c0 f   CdeLib:isupper.obj
 0001:0000762c       islower                    00000001800078cc f   CdeLib:islower.obj
 0001:00007640       strncpy                    00000001800078e0 f   CdeLib:StrNCpy.obj
 0001:00007684       strtok                     0000000180007924 f   CdeLib:StrTok.obj
 0001:000076c8       fsetpos                    0000000180007968 f   CdeLib:Fsetpos.obj
 0002:00000000       __xc_a                     0000000180007a20     CdeLib:_initterm.obj
 0002:00000008       __xc_z                     0000000180007a28     CdeLib:_initterm.obj
 0002:00000010       __xi_a                     0000000180007a30     CdeLib:_initterm.obj
 0002:00000018       __xi_z                     0000000180007a38     CdeLib:_initterm.obj
 0002:00000020       __xp_a                     0000000180007a40     CdeLib:_initterm.obj
 0002:00000028       __xp_z                     0000000180007a48     CdeLib:_initterm.obj
 0002:00000030       __xt_a                     0000000180007a50     CdeLib:_initterm.obj
 0002:00000038       __xt_z                     0000000180007a58     CdeLib:_initterm.obj
 0002:00000040       ??_C@_04BCEBBOAK@?1cmd@    0000000180007a60     main.obj
 0002:00000048       ??_C@_04INBMAKPJ@?1dis@    0000000180007a68     main.obj
 0002:00000050       ??_C@_04EIBLALMK@?1ena@    0000000180007a70     main.obj
 0002:00000058       ??_C@_04EJFMPNAD@?1del@    0000000180007a78     main.obj
 0002:00000060       ??_C@_05IJKDEMEA@?1guid@   0000000180007a80     main.obj
 0002:00000068       ??_C@_05LPMPKBIB@?1list@   0000000180007a88     main.obj
 0002:00000070       ??_C@_02GLHBANAM@?1?$DP@   0000000180007a90     main.obj
 0002:00000074       ??_C@_02JOILMGJP@?1h@      0000000180007a94     main.obj
 0002:00000078       ??_C@_05HDIPJJLA@?1help@   0000000180007a98     main.obj
 0002:00000080       ??_C@_0HE@JENICHIJ@?6LoadOption?5UEFI?5shell?5tool?5to?5@ 0000000180007aa0     main.obj
 0002:00000100       ??_C@_0GE@CNHIJOKC@CdeLoadOption?5?1guid?512345678?900@ 0000000180007b20     main.obj
 0002:00000168       ??_C@_0BK@OIHPKFHL@?5?5?5?5or?6LoadOption?5?1list?6?6@ 0000000180007b88     main.obj
 0002:00000188       ??_C@_0DP@FIOANFFL@?5?5?5?5?1list?5?5?5list?5all?5command?5li@ 0000000180007ba8     main.obj
 0002:000001c8       ??_C@_0CK@GCGNNGGP@?5?5?5?5?1guid?5?5?5FILE_GUID?5of?5the?5PO@ 0000000180007be8     main.obj
 0002:00000200       ??_C@_0ED@CLNLHKAP@?5?5?5?5?1cmd?5?5?5?5command?5line?5includ@ 0000000180007c20     main.obj
 0002:00000250       ??_C@_0EO@OEHIONND@?5?5?5?5?1dis?5?5?5?5disable?5a?5driver?5du@ 0000000180007c70     main.obj
 0002:000002a0       ??_C@_0CH@DOKDNGDN@?5?5?5?5?1ena?5?5?5?5enable?5a?5driver?5for@ 0000000180007cc0     main.obj
 0002:000002d0       ??_C@_0GK@MJJBIJIE@?5?5?5?5?1del?5?5?5?5delete?5command?5line@ 0000000180007cf0     main.obj
 0002:0000033c       ??_C@_11LOCGONAA@@         0000000180007d5c     main.obj
 0002:00000340       ??_C@_0CM@DOLEJLOO@No?5?$CCCdeLoadOption?$CC?5variable?5fou@ 0000000180007d60     main.obj
 0002:00000370       ??_C@_0EI@JIJJGDAE@A?3?2EDK2020?9MinnowBoard?2CdePkg?2L@ 0000000180007d90     main.obj
 0002:000003b8       ??_C@_1BM@PJHILOPO@?$AAC?$AAd?$AAe?$AAL?$AAo?$AAa?$AAd?$AAO?$AAp?$AAt?$AAi?$AAo?$AAn@ 0000000180007dd8     main.obj
 0002:000003d4       ??_C@_05HKKFJEBI@?$CFS?5?3?5@ 0000000180007df4     main.obj
 0002:000003e0       ??_C@_0DE@HJAEGIGO@?$CF08X?9?$CF04X?9?$CF04X?9?$CF02X?$CF02X?9?$CF02X?$CF02@ 0000000180007e00     main.obj
 0002:00000418       ??_C@_0P@BKFKCFOM@Start?5rejected@ 0000000180007e38     main.obj
 0002:00000427       ??_C@_00CNPNBAHC@@         0000000180007e47     main.obj
 0002:00000428       ??_C@_08GJPGANEG@?$CC?$CFs?$CC?5?$CFs?6@ 0000000180007e48     main.obj
 0002:00000440       ??_C@_0GE@JPNDPNAI@A?3?2EDK2020?9MinnowBoard?2CdePkg?2L@ 0000000180007e60     main.obj
 0002:000004a8       ??_C@_0DP@GMEAEDPA@MISSING?5parameter?3?5?1guid?5123456@ 0000000180007ec8     main.obj
 0002:000004e8       ??_C@_0DC@BCAHIDON@MISSING?5parameter?3?5?1cmd?5?$CCdriver@ 0000000180007f08     main.obj
 0002:00000520       ??_C@_0BJ@POPDEOLM@?5?5?5?5?5?5?5?5?5?5?5?5?5?5?5?5?5?5?5?1dis?6@ 0000000180007f40     main.obj
 0002:00000540       ??_C@_0BJ@EBOGCIKL@?5?5?5?5?5?5?5?5?5?5?5?5?5?5?5?5?5?5?5?1ena?6@ 0000000180007f60     main.obj
 0002:00000560       ??_C@_0BJ@KDFPBFEJ@?5?5?5?5?5?5?5?5?5?5?5?5?5?5?5?5?5?5?5?1del?6@ 0000000180007f80     main.obj
 0002:00000580       ??_C@_0DI@IDKFPMOM@?$CF8x?9?$CF4hx?9?$CF4hx?9?$CF2hhx?$CF2hhx?9?$CF2hhx?$CF@ 0000000180007fa0     main.obj
 0002:000005b8       ??_C@_0DP@KIJGPBKJ@Invalid?5GUID?5format?6Use?3?5111111@ 0000000180007fd8     main.obj
 0002:000005f8       ??_C@_0DO@PBBAMPPO@A?3?2EDK2020?9MinnowBoard?2CdePkg?2L@ 0000000180008018     main.obj
 0002:00000640       ??_C@_0FF@MOLILJIP@LoadOption?5?3?5?$CF08X?9?$CF04X?9?$CF04X?9?$CF02@ 0000000180008060     main.obj
 0002:000006a0       ??_C@_0FE@PPODOCCN@LoadOption?5?3?5?$CF08X?9?$CF04X?9?$CF04X?9?$CF02@ 00000001800080c0     main.obj
 0002:00000700       ??_C@_0KA@ILGOBBKO@A?3?2EDK2020?9MinnowBoard?2CdePkg?2L@ 0000000180008120     main.obj
 0002:000007a0       ??_C@_0GH@EALDDKEO@LoadOption?5?3?5?$CF08X?9?$CF04X?9?$CF04X?9?$CF02@ 00000001800081c0     main.obj
 0002:00000810       ??_C@_1GG@CBENNICG@?$AAF?$AAA?$AAT?$AAA?$AAL?$AA?5?$AAE?$AAR?$AAR?$AAO?$AAR?$AA?3?$AA?5?$AAR?$AAe@ 0000000180008230     CdeLib:osifUefiShellEntryPoint.obj
 0002:00000880       ??_C@_1BGK@CFCCBJHC@?$AAF?$AAA?$AAT?$AAA?$AAL?$AA?5?$AAE?$AAR?$AAR?$AAO?$AAR?$AA?3?$AA?5?$AAS?$AAh@ 00000001800082a0     CdeLib:osifUefiShellEntryPoint.obj
 0002:000009ec       ??_C@_02KPKOKMHB@?$CFS@    000000018000840c     CdeLib:osifUefiShellEntryPoint.obj
 0002:000009f0       ??_C@_08INEPGKHH@No?5error@ 0000000180008410     CdeLib:StrError.obj
 0002:00000a00       ??_C@_0BI@BJFCGOHL@Operation?5not?5permitted@ 0000000180008420     CdeLib:StrError.obj
 0002:00000a18       ??_C@_0BK@FMDHKPNF@No?5such?5file?5or?5directory@ 0000000180008438     CdeLib:StrError.obj
 0002:00000a38       ??_C@_0BA@FKIAIBGA@No?5such?5process@ 0000000180008458     CdeLib:StrError.obj
 0002:00000a48       ??_C@_0BK@FJBOAFDK@Interrupted?5function?5call@ 0000000180008468     CdeLib:StrError.obj
 0002:00000a68       ??_C@_0BD@KKNFOBBD@Input?1output?5error@ 0000000180008488     CdeLib:StrError.obj
 0002:00000a80       ??_C@_0BK@DPKMCKJ@No?5such?5device?5or?5address@ 00000001800084a0     CdeLib:StrError.obj
 0002:00000aa0       ??_C@_0BC@MFFGCDFL@Arg?5list?5too?5long@ 00000001800084c0     CdeLib:StrError.obj
 0002:00000ab8       ??_C@_0BC@HKPNECK@Exec?5format?5error@ 00000001800084d8     CdeLib:StrError.obj
 0002:00000ad0       ??_C@_0BE@NFGDDCEF@Bad?5file?5descriptor@ 00000001800084f0     CdeLib:StrError.obj
 0002:00000ae8       ??_C@_0BD@LOHELEP@No?5child?5processes@ 0000000180008508     CdeLib:StrError.obj
 0002:00000b00       ??_C@_0CB@EPFKGNAK@Resource?5temporarily?5unavailabl@ 0000000180008520     CdeLib:StrError.obj
 0002:00000b28       ??_C@_0BB@IMDKMPFB@Not?5enough?5space@ 0000000180008548     CdeLib:StrError.obj
 0002:00000b40       ??_C@_0BC@HFNFNKAI@Permission?5denied@ 0000000180008560     CdeLib:StrError.obj
 0002:00000b58       ??_C@_0M@LOEHLCJD@Bad?5address@ 0000000180008578     CdeLib:StrError.obj
 0002:00000b68       ??_C@_0M@IDOOOPNG@errnum?5?$DN?515@ 0000000180008588     CdeLib:StrError.obj
 0002:00000b78       ??_C@_0BA@BIBLIOEK@Resource?5device@ 0000000180008598     CdeLib:StrError.obj
 0002:00000b88       ??_C@_0M@NAAJNNGH@File?5exists@ 00000001800085a8     CdeLib:StrError.obj
 0002:00000b98       ??_C@_0O@OAMDNOCP@Improper?5link@ 00000001800085b8     CdeLib:StrError.obj
 0002:00000ba8       ??_C@_0P@NLEIANHE@No?5such?5device@ 00000001800085c8     CdeLib:StrError.obj
 0002:00000bb8       ??_C@_0BA@CJBACOOL@Not?5a?5directory@ 00000001800085d8     CdeLib:StrError.obj
 0002:00000bc8       ??_C@_0P@NDHGCGKE@Is?5a?5directory@ 00000001800085e8     CdeLib:StrError.obj
 0002:00000bd8       ??_C@_0BB@HMGGCEBG@Invalid?5argument@ 00000001800085f8     CdeLib:StrError.obj
 0002:00000bf0       ??_C@_0BO@IIFBODJE@Too?5many?5open?5files?5in?5system@ 0000000180008610     CdeLib:StrError.obj
 0002:00000c10       ??_C@_0BE@INBJMKGG@Too?5many?5open?5files@ 0000000180008630     CdeLib:StrError.obj
 0002:00000c28       ??_C@_0CE@ONOKNLPF@Inappropriate?5I?1O?5control?5opera@ 0000000180008648     CdeLib:StrError.obj
 0002:00000c50       ??_C@_0M@KKIFACEM@errnum?5?$DN?526@ 0000000180008670     CdeLib:StrError.obj
 0002:00000c60       ??_C@_0P@LFMMIPAE@File?5too?5large@ 0000000180008680     CdeLib:StrError.obj
 0002:00000c70       ??_C@_0BI@FEALHKLD@No?5space?5left?5on?5device@ 0000000180008690     CdeLib:StrError.obj
 0002:00000c88       ??_C@_0N@FEHLOILP@Invalid?5seek@ 00000001800086a8     CdeLib:StrError.obj
 0002:00000c98       ??_C@_0BG@DDBFNKBH@Read?9only?5file?5system@ 00000001800086b8     CdeLib:StrError.obj
 0002:00000cb0       ??_C@_0P@PKCJJLLM@Too?5many?5links@ 00000001800086d0     CdeLib:StrError.obj
 0002:00000cc0       ??_C@_0M@LHEPIIOM@Broken?5pipe@ 00000001800086e0     CdeLib:StrError.obj
 0002:00000cd0       ??_C@_0N@MMJPGLJK@Domain?5error@ 00000001800086f0     CdeLib:StrError.obj
 0002:00000ce0       ??_C@_0BB@FCBJFCAJ@Result?5too?5large@ 0000000180008700     CdeLib:StrError.obj
 0002:00000cf8       ??_C@_0M@IAGKDLLI@errnum?5?$DN?535@ 0000000180008718     CdeLib:StrError.obj
 0002:00000d08       ??_C@_0BK@JAEBMJJM@Resource?5deadlock?5avoided@ 0000000180008728     CdeLib:StrError.obj
 0002:00000d28       ??_C@_0M@LCFMFJDK@errnum?5?$DN?537@ 0000000180008748     CdeLib:StrError.obj
 0002:00000d38       ??_C@_0BC@BEDIHIDK@Filename?5too?5long@ 0000000180008758     CdeLib:StrError.obj
 0002:00000d50       ??_C@_0BD@CLHBCGPB@No?5locks?5available@ 0000000180008770     CdeLib:StrError.obj
 0002:00000d68       ??_C@_0BJ@IHEHINLI@Function?5not?5implemented@ 0000000180008788     CdeLib:StrError.obj
 0002:00000d88       ??_C@_0BE@ICMCHPHH@Directory?5not?5empty@ 00000001800087a8     CdeLib:StrError.obj
 0002:00000da0       ??_C@_0BG@KLEAJEFJ@Illegal?5byte?5sequence@ 00000001800087c0     CdeLib:StrError.obj
 0002:00000db8       ??_C@_07PBILKAFL@Success@  00000001800087d8     CdeLib:StrError.obj
 0002:00000dc0       ??_C@_0L@PMFNEKME@Load?5error@ 00000001800087e0     CdeLib:StrError.obj
 0002:00000dd0       ??_C@_0BC@DBAKKFEN@Invalid?5parameter@ 00000001800087f0     CdeLib:StrError.obj
 0002:00000de8       ??_C@_0M@BEECMOIL@Unsupported@ 0000000180008808     CdeLib:StrError.obj
 0002:00000df8       ??_C@_0BA@ICCMAINJ@Bad?5buffer?5size@ 0000000180008818     CdeLib:StrError.obj
 0002:00000e08       ??_C@_0BB@OLKJDAH@Buffer?5too?5small@ 0000000180008828     CdeLib:StrError.obj
 0002:00000e20       ??_C@_09NNPKCNML@Not?5ready@ 0000000180008840     CdeLib:StrError.obj
 0002:00000e30       ??_C@_0N@HAOMBGEI@Device?5error@ 0000000180008850     CdeLib:StrError.obj
 0002:00000e40       ??_C@_0BA@PCBODGAB@Write?5protected@ 0000000180008860     CdeLib:StrError.obj
 0002:00000e50       ??_C@_0BB@CBNGNHNA@Out?5of?5resources@ 0000000180008870     CdeLib:StrError.obj
 0002:00000e68       ??_C@_0BB@FPEIPKEJ@Volume?5corrupted@ 0000000180008888     CdeLib:StrError.obj
 0002:00000e80       ??_C@_0M@LCHFNBFE@Volume?5full@ 00000001800088a0     CdeLib:StrError.obj
 0002:00000e90       ??_C@_08KDMMJGOL@No?5media@ 00000001800088b0     CdeLib:StrError.obj
 0002:00000ea0       ??_C@_0O@JNCJKCCD@Media?5changed@ 00000001800088c0     CdeLib:StrError.obj
 0002:00000eb0       ??_C@_09CCINFMOF@Not?5found@ 00000001800088d0     CdeLib:StrError.obj
 0002:00000ec0       ??_C@_0O@BKMDCBKC@Access?5denied@ 00000001800088e0     CdeLib:StrError.obj
 0002:00000ed0       ??_C@_0M@MPFDJHOM@No?5response@ 00000001800088f0     CdeLib:StrError.obj
 0002:00000ee0       ??_C@_0L@IFPBNFC@No?5mapping@ 0000000180008900     CdeLib:StrError.obj
 0002:00000ef0       ??_C@_07MKALMBDJ@Timeout@  0000000180008910     CdeLib:StrError.obj
 0002:00000ef8       ??_C@_0M@DCJFAFHJ@Not?5started@ 0000000180008918     CdeLib:StrError.obj
 0002:00000f08       ??_C@_0BA@IGIBFFPH@Already?5started@ 0000000180008928     CdeLib:StrError.obj
 0002:00000f18       ??_C@_07LCKDCBKK@Aborted@  0000000180008938     CdeLib:StrError.obj
 0002:00000f20       ??_C@_0L@IJPDMKMN@Icmp?5error@ 0000000180008940     CdeLib:StrError.obj
 0002:00000f30       ??_C@_0L@KNLHMGP@Tftp?5error@ 0000000180008950     CdeLib:StrError.obj
 0002:00000f40       ??_C@_0P@NFDLBHIK@Protocol?5error@ 0000000180008960     CdeLib:StrError.obj
 0002:00000f50       ??_C@_0BF@LOJHAHJO@Incompatible?5version@ 0000000180008970     CdeLib:StrError.obj
 0002:00000f68       ??_C@_0BD@OIJCCLDG@Security?5violation@ 0000000180008988     CdeLib:StrError.obj
 0002:00000f80       ??_C@_09GCOLIMIF@Crc?5error@ 00000001800089a0     CdeLib:StrError.obj
 0002:00000f90       ??_C@_0N@OOFDCMI@End?5of?5media@ 00000001800089b0     CdeLib:StrError.obj
 0002:00000fa0       ??_C@_0M@JLKPDLNL@End?5of?5file@ 00000001800089c0     CdeLib:StrError.obj
 0002:00000fb0       ??_C@_0BB@CHGBEAEB@Invalid?5language@ 00000001800089d0     CdeLib:StrError.obj
 0002:00000fc8       ??_C@_0O@NIPGCINC@Unknown?5error@ 00000001800089e8     CdeLib:StrError.obj
 0002:00000fd8       ??_C@_01LFCBOECM@?4@       00000001800089f8     CdeLib:_locale_C_.obj
 0002:00000fdc       ??_C@_13JOFGPIOO@?$AA?4@   00000001800089fc     CdeLib:_locale_C_.obj
 0002:00000fe0       ??_C@_01GFHCPBMG@C@        0000000180008a00     CdeLib:_locale_C_.obj
 0002:00000fe8       ??_C@_1O@CEDCILHN@?$AA?$CI?$AAn?$AAu?$AAl?$AAl?$AA?$CJ@ 0000000180008a08     CdeLib:VwxPrintf.obj
 0002:00000ff8       ??_C@_06OJHGLDPL@?$CInull?$CJ@ 0000000180008a18     CdeLib:VwxPrintf.obj
 0002:00001000       __xmm@ffffffffffffffffffffffffffffffff 0000000180008a20     CdeLib:VwxScanf.obj
 0002:00001010       ??_C@_01KDCPPGHE@r@        0000000180008a30     CdeLib:osifUefiShellFileOpen.obj
 0002:00001014       ??_C@_02JDPG@rb@           0000000180008a34     CdeLib:osifUefiShellFileOpen.obj
 0002:00001018       ??_C@_02CBLLGHLK@r?$CL@    0000000180008a38     CdeLib:osifUefiShellFileOpen.obj
 0002:0000101c       ??_C@_03HMFOOINA@r?$CLb@   0000000180008a3c     CdeLib:osifUefiShellFileOpen.obj
 0002:00001020       ??_C@_03CCKOKKND@rb?$CL@   0000000180008a40     CdeLib:osifUefiShellFileOpen.obj
 0002:00001024       ??_C@_01NOFIACDB@w@        0000000180008a44     CdeLib:osifUefiShellFileOpen.obj
 0002:00001028       ??_C@_02GMLFBBN@wb@        0000000180008a48     CdeLib:osifUefiShellFileOpen.obj
 0002:0000102c       ??_C@_02CHHAKFFB@w?$CL@    0000000180008a4c     CdeLib:osifUefiShellFileOpen.obj
 0002:00001030       ??_C@_03ELIABIOC@w?$CLb@   0000000180008a50     CdeLib:osifUefiShellFileOpen.obj
 0002:00001034       ??_C@_03BFHAFKOB@wb?$CL@   0000000180008a54     CdeLib:osifUefiShellFileOpen.obj
 0002:00001038       ??_C@_01MCMALHOG@a@        0000000180008a58     CdeLib:osifUefiShellFileOpen.obj
 0002:0000103c       ??_C@_02BOGAIONP@ab@       0000000180008a5c     CdeLib:osifUefiShellFileOpen.obj
 0002:00001040       ??_C@_02DPNLHKJD@a?$CL@    0000000180008a60     CdeLib:osifUefiShellFileOpen.obj
 0002:00001044       ??_C@_03DOPCBAKB@a?$CLb@   0000000180008a64     CdeLib:osifUefiShellFileOpen.obj
 0002:00001048       ??_C@_03GAACFCKC@ab?$CL@   0000000180008a68     CdeLib:osifUefiShellFileOpen.obj
 0002:0000104c       ??_C@_13PJJBFPED@?$AA?$DL@ 0000000180008a6c     CdeLib:osifUefiShellFileOpen.obj
 0002:00001050       ??_C@_13FPGAJAPJ@?$AA?2@   0000000180008a70     CdeLib:osifUefiShellFileOpen.obj
 0002:00001054       ??_C@_02DPKJAMEF@?$CFd@    0000000180008a74     CdeLib:VMofine.obj
 0002:00001058       ??_C@_0BM@DAECFMAP@?$CFs?$CFs?$CFs?$CFs?$CFs?$CFs?$CFs?$CFs?$CF010d?$CFs?$CFs?$CFs@ 0000000180008a78     CdeLib:VMofine.obj
 0002:00001074       ??_C@_02HCKGKOFO@?$CI?$CJ@ 0000000180008a94     CdeLib:VMofine.obj
 0002:00001078       ??_C@_01PKGAHCOL@?$CJ@     0000000180008a98     CdeLib:VMofine.obj
 0002:0000107c       ??_C@_01ODHLEDKK@?$CI@     0000000180008a9c     CdeLib:VMofine.obj
 0002:00001080       ??_C@_01CLKCMJKC@?5@       0000000180008aa0     CdeLib:VMofine.obj
 0002:00001088       ??_C@_0BD@LIHNMEBN@?$CFs?$CFs?$CFs?$CFs?$CFs?$CFs?$CFs?$CFs?$CFs@ 0000000180008aa8     CdeLib:VMofine.obj
 0002:000010a0       ??_C@_0BK@IKLFGGKA@?$CFs?$CFs?$CFs?$CFs?$CFs?$CFs?$CFs?$CFs?$CF010d?$CFs?$CFs@ 0000000180008ac0     CdeLib:VMofine.obj
 0002:000010c8       ??_C@_09IINBGKIA@?$CF016llX?3?5@ 0000000180008ae8     CdeLib:XDump.obj
 0002:000010d8       ??_C@_08FOOEKCDB@?$CF08llX?3?5@ 0000000180008af8     CdeLib:XDump.obj
 0002:000010e8       ??_C@_08JJEEMIEF@?$CF04llX?3?5@ 0000000180008b08     CdeLib:XDump.obj
 0002:000010f8       ??_C@_08PKJEPNHP@?$CF02llX?3?5@ 0000000180008b18     CdeLib:XDump.obj
 0002:00001104       ??_C@_02HAOIJKIC@?$CFc@    0000000180008b24     CdeLib:XDump.obj
 0002:00001108       ??_C@_02KFKPNHPM@?9?5@     0000000180008b28     CdeLib:XDump.obj
 0002:0000110c       ??_C@_05BFHEBJNP@?$CF02X?5@ 0000000180008b2c     CdeLib:XDump.obj
 0002:00001114       ??_C@_05DABPEGAD@?$CF04X?5@ 0000000180008b34     CdeLib:XDump.obj
 0002:0000111c       ??_C@_05HKMJPJLL@?$CF08X?5@ 0000000180008b3c     CdeLib:XDump.obj
 0002:00001128       ??_C@_08FCHDLMML@?$CF016llX?5@ 0000000180008b48     CdeLib:XDump.obj
 0002:00001134       ??_C@_01EEMJAFIK@?6@       0000000180008b54     CdeLib:XDump.obj
 0002:00001138       ??_C@_0CE@NLPNMFHG@invalid?5parameter?3?5?$CFS?$CI?$CFd?$CJ?5?$CFS?$CI?$CJ?5@ 0000000180008b58     CdeLib:_invalid_parameter_handler.obj
 0002:00001160       ??_C@_0BD@NEDHKJBG@invalid?5parameter?6@ 0000000180008b80     CdeLib:_invalid_parameter_handler.obj
 0002:00001174       ??_C@_02OJDBNLEE@?5?7@     0000000180008b94     CdeLib:Fopen.obj
 0002:00001178       ??_C@_0BO@ICHKIABJ@abnormal?5program?5termination?6@ 0000000180008b98     CdeLib:abort.obj
 0003:00000000       gCdeSystemVolumes          0000000180009280     CdeLib:osifUefiShellEntryPoint.obj
 0003:00001f48       _locale_C_                 000000018000b1c8     CdeLib:_locale_C_.obj
 0003:00001f70       rgFACCESSMODE              000000018000b1f0     CdeLib:osifUefiShellFileOpen.obj
 0003:00002290       _gCdeCopyRight             000000018000b510     CdeLib:_gCdeCopyright.obj
 0003:00002720       _gCdeEfiShellProtocolGuid  000000018000b9a0     CdeLib:EFI_SHELL_PROTOCOL_GUID.obj
 0003:00002730       _gCdeCfgCmdLnParmPoolMemRetain 000000018000b9b0     CdeLib:_gCdeCfgCmdLnParmPoolMemRetain.obj
 0003:0000275c       _gCdeCfgMofineRawSeparator 000000018000b9dc     CdeLib:_gCdeCfgMofineRawSeparator.obj
 0003:00002770       pinvalid_parameter_handler 000000018000b9f0     CdeLib:_invalid_parameter_handler.obj
 0003:000027a0       gszEmpty                   000000018000ba20     CdeLib:VwxPrintf.obj
 0003:00003620       _gSTDOUTMode               000000018000c8a0     CdeLib:_gSTDOUTMode.obj
 0003:00003628       gImageHandle               000000018000c8a8     CdeLib:UefiBootServicesTableLib.obj
 0003:00003630       gST                        000000018000c8b0     CdeLib:UefiBootServicesTableLib.obj
 0003:00003638       gBS                        000000018000c8b8     CdeLib:UefiBootServicesTableLib.obj
 0003:00003640       _gCdeCfgCmdLnParmReportStatusCodeCOM1 000000018000c8c0     CdeLib:_gCdeCfgCmdLnParmReportStatusCodeCOM1.obj
 0003:00003641       _gCdeCfgCmdLnParmReportStatusCodeSTDOUT 000000018000c8c1     CdeLib:_gCdeCfgCmdLnParmReportStatusCodeSTDOUT.obj
 0003:00003648       efierrno                   000000018000c8c8     <common>
 0003:00003650       __errno                    000000018000c8d0     <common>
 0003:00003658       pConIOPutStr               000000018000c8d8     <common>
 0003:00003660       pConIOClr                  000000018000c8e0     <common>
 0003:00003668       pCdeEfiDevicePathToTextProtocol 000000018000c8e8     <common>
 0003:00003680       _iob                       000000018000c900     <common>
 0003:00005080       hCdeImage                  000000018000e300     <common>
 0003:00005088       pCdeRS                     000000018000e308     <common>
 0003:00005090       pCdeBS                     000000018000e310     <common>
 0003:00005098       pCdeST                     000000018000e318     <common>
 0003:000050a0       gszCdeDriverName           000000018000e320     <common>
 0003:000050a8       pEfiShellProtocol          000000018000e328     <common>

 entry point at        0001:000009a8

 Static symbols

 0001:00000924       _StdOutPutChar             0000000180000bc4 f   CdeLib:osifUefiShellEntryPoint.obj
 0001:00000960       _StdInGetChar              0000000180000c00 f   CdeLib:osifUefiShellEntryPoint.obj
 0001:00001098       __fputcpp                  0000000180001338 f   CdeLib:Fprintf.obj
 0001:00001f50       nfill                      00000001800021f0 f   CdeLib:VwxPrintf.obj
 0001:00001fc0       nprintfield                0000000180002260 f   CdeLib:VwxPrintf.obj
 0001:00002338       num2str                    00000001800025d8 f   CdeLib:VwxPrintf.obj
 0001:00002480       str2dev                    0000000180002720 f   CdeLib:VwxPrintf.obj
 0001:00003388       IsCharInNumberRange        0000000180003628 f   CdeLib:VwxScanf.obj
 0001:000033fc       str2num                    000000018000369c f   CdeLib:VwxScanf.obj
 0001:00004d04       myConIOClr                 0000000180004fa4 f   CdeLib:osifUefiShellCmdExec.obj
 0001:00004d10       myConIOPutStr              0000000180004fb0 f   CdeLib:osifUefiShellCmdExec.obj
 0001:00005900       PrintAscii                 0000000180005ba0 f   CdeLib:XDump.obj
 0001:000061f0       $$000000                   0000000180006490     CdeLib:setjmp64.obj
 0001:000064c0       $$000000                   0000000180006760     CdeLib:CdeGetCurrentPrivilegeLevel64.obj
 0001:0000707c       invalid_parameter_handler  000000018000731c f   CdeLib:_invalid_parameter_handler.obj
 0001:00007380       $$000000                   0000000180007620     CdeLib:longjmp64.obj
 0002:000010bc       szTwoSpaces                0000000180008adc     CdeLib:XDump.obj
 0002:000010c0       szOneSpace                 0000000180008ae0     CdeLib:XDump.obj
 0002:000012d4       $unwind$main               0000000180008cf4     main.obj
 0002:000012ec       $unwind$_GetCdeAppIf       0000000180008d0c     CdeLib:osifUefiShellEntryPoint.obj
 0002:000012f4       $unwind$_StdOutPutChar     0000000180008d14     CdeLib:osifUefiShellEntryPoint.obj
 0002:000012fc       $unwind$__CdeChkCtrlC      0000000180008d1c     CdeLib:osifUefiShellEntryPoint.obj
 0002:00001304       $unwind$_MainEntryPointShell 0000000180008d24     CdeLib:osifUefiShellEntryPoint.obj
 0002:00001320       $unwind$fprintf            0000000180008d40     CdeLib:Fprintf.obj
 0002:0000132c       $unwind$printf             0000000180008d4c     CdeLib:Printf.obj
 0002:00001334       $unwind$sscanf             0000000180008d54     CdeLib:Sscanf.obj
 0002:0000133c       $unwind$realloc            0000000180008d5c     CdeLib:Realloc.obj
 0002:00001348       $unwind$strcpy             0000000180008d68     CdeLib:StrCpy.obj
 0002:00001354       $unwind$strcmp             0000000180008d74     CdeLib:StrCmp.obj
 0002:00001360       $unwind$memset             0000000180008d80     CdeLib:MemSet.obj
 0002:00001368       $unwind$wcscpy             0000000180008d88     CdeLib:WcsCpy.obj
 0002:00001374       $unwind$wcscmp             0000000180008d94     CdeLib:WcsCmp.obj
 0002:00001380       $unwind$_CdeDbgPutChar     0000000180008da0     CdeLib:_CdeDbgPutChar.obj
 0002:00001398       $unwind$VwxPrintf          0000000180008db8     CdeLib:VwxPrintf.obj
 0002:000013b4       $unwind$str2dev            0000000180008dd4     CdeLib:VwxPrintf.obj
 0002:000013cc       $unwind$num2str            0000000180008dec     CdeLib:VwxPrintf.obj
 0002:000013e8       $unwind$nfill              0000000180008e08     CdeLib:VwxPrintf.obj
 0002:00001400       $unwind$nprintfield        0000000180008e20     CdeLib:VwxPrintf.obj
 0002:00001418       $unwind$str2num            0000000180008e38     CdeLib:VwxScanf.obj
 0002:0000142c       $unwind$VwxScanf           0000000180008e4c     CdeLib:VwxScanf.obj
 0002:00001448       $unwind$WcsStrTok          0000000180008e68     CdeLib:WcsStrTok.obj
 0002:00001464       $unwind$WcsStrPbrkSpn      0000000180008e84     CdeLib:WcsStrPbrkSpn.obj
 0002:00001480       $unwind$MemRealloc         0000000180008ea0     CdeLib:MemRealloc.obj
 0002:0000149c       $unwind$MemStrxCpy         0000000180008ebc     CdeLib:MemStrxCpy.obj
 0002:000014b4       $unwind$MemStrxCmp         0000000180008ed4     CdeLib:MemStrxCmp.obj
 0002:000014d0       $unwind$osifIbmAtGetTime   0000000180008ef0     CdeLib:osifIbmAtGetTime.obj
 0002:000014dc       $unwind$osifUefiShellMemAlloc 0000000180008efc     CdeLib:osifUefiShellMemAlloc.obj
 0002:000014e4       $unwind$osifUefiShellFileWrite 0000000180008f04     CdeLib:osifUefiShellFileWrite.obj
 0002:000014f8       $unwind$osifUefiShellFileRead 0000000180008f18     CdeLib:osifUefiShellFileRead.obj
 0002:0000150c       $unwind$osifUefiShellFileSetPos 0000000180008f2c     CdeLib:osifUefiShellFileSetPos.obj
 0002:00001520       $unwind$osifUefiShellFileOpen 0000000180008f40     CdeLib:osifUefiShellFileOpen.obj
 0002:00001538       $unwind$osifUefiShellFileClose 0000000180008f58     CdeLib:osifUefiShellFileClose.obj
 0002:00001544       $unwind$osifUefiShellFileDelete 0000000180008f64     CdeLib:osifUefiShellFileDelete.obj
 0002:0000154c       $unwind$osifUefiShellFileRename 0000000180008f6c     CdeLib:osifUefiShellFileRename.obj
 0002:00001568       $unwind$myConIOPutStr      0000000180008f88     CdeLib:osifUefiShellCmdExec.obj
 0002:00001578       $unwind$osifUefiShellCmdExec 0000000180008f98     CdeLib:osifUefiShellCmdExec.obj
 0002:00001588       $unwind$osifUefiShellGetEnv 0000000180008fa8     CdeLib:osifUefiShellGetEnv.obj
 0002:0000159c       $unwind$VMofine            0000000180008fbc     CdeLib:VMofine.obj
 0002:000015bc       $unwind$XDump              0000000180008fdc     CdeLib:XDump.obj
 0002:000015d4       $unwind$PrintAscii         0000000180008ff4     CdeLib:XDump.obj
 0002:000015f0       $unwind$fclose             0000000180009010     CdeLib:Fclose.obj
 0002:00001600       $unwind$fgetc              0000000180009020     CdeLib:Fgetc.obj
 0002:00001608       $unwind$fwrite             0000000180009028     CdeLib:Fwrite.obj
 0002:00001620       $unwind$FilePointerValid   0000000180009040     CdeLib:Fwrite.obj
 0002:00001628       $unwind$sprintf            0000000180009048     CdeLib:Sprintf.obj
 0002:00001630       $unwind$raise              0000000180009050     CdeLib:raise.obj
 0002:00001640       $unwind$_CdeStr2Argv       0000000180009060     CdeLib:_CdeStr2Argv.obj
 0002:00001658       $unwind$_CdeLocateProtocol 0000000180009078     CdeLib:_CdeLocateProtocol.obj
 0002:00001660       $unwind$_initterm_e        0000000180009080     CdeLib:_initterm.obj
 0002:0000166c       $unwind$_initterm          000000018000908c     CdeLib:_initterm.obj
 0002:00001678       $unwind$fflush             0000000180009098     CdeLib:Fflush.obj
 0002:00001688       $unwind$fputc              00000001800090a8     CdeLib:Fputc.obj
 0002:00001694       $unwind$_abort             00000001800090b4     CdeLib:_abort.obj
 0002:0000169c       $unwind$isxdigit           00000001800090bc     CdeLib:isxdigit.obj
 0002:000016a4       $unwind$_mktime64          00000001800090c4     CdeLib:mktime.obj
 0002:000016ac       $unwind$_gmltime           00000001800090cc     CdeLib:_gmltime.obj
 0002:000016b8       $unwind$wcschr             00000001800090d8     CdeLib:WcsChr.obj
 0002:000016c0       $unwind$wcscat             00000001800090e0     CdeLib:WcsCat.obj
 0002:000016cc       $unwind$wcsncmp            00000001800090ec     CdeLib:WcsNCmp.obj
 0002:000016dc       $unwind$wcsncpy            00000001800090fc     CdeLib:WcsNCpy.obj
 0002:000016ec       $unwind$wcstok             000000018000910c     CdeLib:WcsTok.obj
 0002:000016fc       $unwind$_wcsicmp           000000018000911c     CdeLib:_WcsICmp.obj
 0002:00001708       $unwind$_CdeLocateHandleBuffer 0000000180009128     CdeLib:_CdeLocateHandleBuffer.obj
 0002:00001718       $unwind$_CdeConvertDevicePathToText 0000000180009138     CdeLib:_CdeConvertDevicePathToText.obj
 0002:00001720       $unwind$_CdeGetMapFromDevicePath 0000000180009140     CdeLib:_CdeGetMapFromDevicePath.obj
 0002:00001728       $unwind$_CdeGetCurDir      0000000180009148     CdeLib:_CdeGetCurDir.obj
 0002:00001730       $unwind$wcsrchr            0000000180009150     CdeLib:WcsRChr.obj
 0002:0000173c       $unwind$__CoreSprintf      000000018000915c     CdeLib:__CoreSprintf.obj
 0002:00001744       $unwind$__CoreClock        0000000180009164     CdeLib:__CoreClock.obj
 0002:00001750       $unwind$__CoreExit         0000000180009170     CdeLib:__CoreExit.obj
 0002:00001758       $unwind$__CoreMofine       0000000180009178     CdeLib:__CoreMofine.obj
 0002:00001760       $unwind$isalnum            0000000180009180     CdeLib:isalnum.obj
 0002:0000176c       $unwind$remove             000000018000918c     CdeLib:Remove.obj
 0002:00001780       $unwind$fread              00000001800091a0     CdeLib:Fread.obj
 0002:00001798       $unwind$vsnprintf          00000001800091b8     CdeLib:Vsnprintf.obj
 0002:000017b0       $unwind$invalid_parameter_handler 00000001800091d0     CdeLib:_invalid_parameter_handler.obj
 0002:000017c4       $unwind$exit               00000001800091e4     CdeLib:exit.obj
 0002:000017cc       $unwind$day2gregorian      00000001800091ec     CdeLib:_day2greg.obj
 0002:000017d8       $unwind$wcspbrk            00000001800091f8     CdeLib:WcsPbrk.obj
 0002:000017e4       $unwind$_CdePoolWcs2AppWcs 0000000180009204     CdeLib:_CdePoolWcs2AppWcs.obj
 0002:000017f4       $unwind$isalpha            0000000180009214     CdeLib:isalpha.obj
 0002:00001800       $unwind$fopen              0000000180009220     CdeLib:Fopen.obj
 0002:00001814       $unwind$rewind             0000000180009234     CdeLib:Rewind.obj
 0002:0000181c       $unwind$abort              000000018000923c     CdeLib:abort.obj
 0002:00001824       $unwind$strncpy            0000000180009244     CdeLib:StrNCpy.obj
 0002:00001834       $unwind$strtok             0000000180009254     CdeLib:StrTok.obj
 0002:00001840       $unwind$fsetpos            0000000180009260     CdeLib:Fsetpos.obj
 0003:00000f20       gCdeServicesShell          000000018000a1a0     CdeLib:osifUefiShellEntryPoint.obj
 0003:00001070       CdeAppIfShell              000000018000a2f0     CdeLib:osifUefiShellEntryPoint.obj
 0003:00001580       _gEfiStatusCodeRuntimeProtocolGuid 000000018000a800     CdeLib:osifUefiShellEntryPoint.obj
 0003:00001590       pCdeAppIf                  000000018000a810     CdeLib:osifUefiShellEntryPoint.obj
 0003:00001598       ?RomParmVWXPRINTF@?1??_MainEntryPointShell@@9@9 000000018000a818     CdeLib:osifUefiShellEntryPoint.obj
 0003:000015a0       ?encstrings@?1??_MainEntryPointShell@@9@9 000000018000a820     CdeLib:osifUefiShellEntryPoint.obj
 0003:00001bc0       ?EfiLoadedImageProtocolGuid@?1??_MainEntryPointShell@@9@9 000000018000ae40     CdeLib:osifUefiShellEntryPoint.obj
 0003:00001bd0       ?EfiShellParametersProtocolGuid@?BC@??_MainEntryPointShell@@9@9 000000018000ae50     CdeLib:osifUefiShellEntryPoint.obj
 0003:00001be0       ?helpstrings@?BE@??_MainEntryPointShell@@9@9 000000018000ae60     CdeLib:osifUefiShellEntryPoint.obj
 0003:00001c10       ?ROMPARM@?BH@??_MainEntryPointShell@@9@9 000000018000ae90     CdeLib:osifUefiShellEntryPoint.obj
 0003:00001c18       RomParm                    000000018000ae98     CdeLib:Fprintf.obj
 0003:00001c20       RomParm                    000000018000aea0     CdeLib:Printf.obj
 0003:00001c28       RomParm                    000000018000aea8     CdeLib:Sscanf.obj
 0003:00001c34       ROMPARM                    000000018000aeb4     CdeLib:StrCmp.obj
 0003:00001c3c       ROMPARM                    000000018000aebc     CdeLib:WcsCmp.obj
 0003:00001c50       rgszSysErrors              000000018000aed0     CdeLib:StrError.obj
 0003:00001da8       ?pszRet@?1??strefierror@@9@9 000000018000b028     CdeLib:StrError.obj
 0003:00001db0       rgszEfiErrors              000000018000b030     CdeLib:StrError.obj
 0003:00001eb0       _locale                    000000018000b130     CdeLib:_locale_C_.obj
 0003:00001f60       ?action@?6??MemRealloc@@9@9 000000018000b1e0     CdeLib:MemRealloc.obj
 0003:00002170       _gEfiDevicePathProtocolGuid 000000018000b3f0     CdeLib:osifUefiShellFileOpen.obj
 0003:00002180       _gEfiSimpleFileSystemProtocolGuid 000000018000b400     CdeLib:osifUefiShellFileOpen.obj
 0003:00002190       _gEfiDevicePathToTextProtocolGuid 000000018000b410     CdeLib:osifUefiShellFileOpen.obj
 0003:000021a0       ?wcsSHELL@?1??myConIOPutStr@@9@9 000000018000b420     CdeLib:osifUefiShellCmdExec.obj
 0003:000021d8       ?wcsMAP@?1??myConIOPutStr@@9@9 000000018000b458     CdeLib:osifUefiShellCmdExec.obj
 0003:000021f8       ?wcsALIAS@?1??myConIOPutStr@@9@9 000000018000b478     CdeLib:osifUefiShellCmdExec.obj
 0003:00002210       ?wcsBLK@?1??myConIOPutStr@@9@9 000000018000b490     CdeLib:osifUefiShellCmdExec.obj
 0003:00002228       ?wcsBLK2@?1??myConIOPutStr@@9@9 000000018000b4a8     CdeLib:osifUefiShellCmdExec.obj
 0003:00002238       ?wcsFS@?1??myConIOPutStr@@9@9 000000018000b4b8     CdeLib:osifUefiShellCmdExec.obj
 0003:00002250       ?wcsFS2@?1??myConIOPutStr@@9@9 000000018000b4d0     CdeLib:osifUefiShellCmdExec.obj
 0003:00002260       ?RomParm@?1??VMofine@@9@9  000000018000b4e0     CdeLib:VMofine.obj
 0003:00002268       ?rgszAddrXX@?1??XDump@@9@9 000000018000b4e8     CdeLib:XDump.obj
 0003:00002740       ROMPARM                    000000018000b9c0     CdeLib:WcsNCmp.obj
 0003:00002748       ROMPARM                    000000018000b9c8     CdeLib:WcsTok.obj
 0003:0000274c       ROMPARM                    000000018000b9cc     CdeLib:_WcsICmp.obj
 0003:00002754       ?RomParm@?1??__CoreSprintf@@9@9 000000018000b9d4     CdeLib:__CoreSprintf.obj
 0003:00002760       RomParm                    000000018000b9e0     CdeLib:Vsnprintf.obj
 0003:00002768       ?sigorder@?1??_sig2idx@@9@9 000000018000b9e8     CdeLib:_sig2idx.obj
 0003:00002780       ROMPARM                    000000018000ba00     CdeLib:StrTok.obj
 0003:000027b0       ?wcBuffer@?1??osifUefiShellFileWrite@@9@9 000000018000ba30     CdeLib:osifUefiShellFileWrite.obj
 0003:00002bc0       ?wcbuffer@?3??osifUefiShellFileRead@@9@9 000000018000be40     CdeLib:osifUefiShellFileRead.obj
 0003:00002fc0       ?wcsFilePath@?5??osifUefiShellFileOpen@@9@9 000000018000c240     CdeLib:osifUefiShellFileOpen.obj
 0003:000031d0       ?wcsFileName@?5??osifUefiShellFileOpen@@9@9 000000018000c450     CdeLib:osifUefiShellFileOpen.obj
 0003:000033d8       ?wcsDrive@?5??osifUefiShellFileOpen@@9@9 000000018000c658     CdeLib:osifUefiShellFileOpen.obj
 0003:000033f8       ?wcsDrive2@?5??osifUefiShellFileOpen@@9@9 000000018000c678     CdeLib:osifUefiShellFileOpen.obj
 0003:00003418       state                      000000018000c698     CdeLib:osifUefiShellCmdExec.obj
 0003:00003420       ?buffer@?1??osifUefiShellGetEnv@@9@9 000000018000c6a0     CdeLib:osifUefiShellGetEnv.obj
